; Function Attrs: nounwind uwtable
define internal fastcc range(i32 0, 4) i32 @uriResolveAbsolutePathFlagA(ptr noundef nonnull %0, ptr noundef %1) unnamed_addr #0 {
  %3 = tail call i32 @uriIsHostSetA(ptr noundef nonnull %0) #4
  %.not = icmp eq i32 %3, 0
  br i1 %.not, label %20, label %4

4:                                                ; preds = %2
  %5 = getelementptr inbounds nuw i8, ptr %0, i64 144
  %6 = load i32, ptr %5, align 8, !tbaa !18
  %.not19 = icmp eq i32 %6, 0
  br i1 %.not19, label %20, label %7

7:                                                ; preds = %4
  %8 = getelementptr inbounds nuw i8, ptr %0, i64 96
  %9 = load ptr, ptr %8, align 8, !tbaa !17
  %10 = icmp eq ptr %9, null
  br i1 %10, label %11, label %19

11:                                               ; preds = %7
  %12 = load ptr, ptr %1, align 8, !tbaa !31
  %13 = tail call ptr %12(ptr noundef nonnull %1, i64 noundef 32) #4
  %14 = icmp eq ptr %13, null
  br i1 %14, label %20, label %.thread

.thread:                                          ; preds = %11
  %15 = load ptr, ptr @uriSafeToPointToA, align 8, !tbaa !16
  store ptr %15, ptr %13, align 8, !tbaa !33
  %16 = getelementptr inbounds nuw i8, ptr %13, i64 8
  store ptr %15, ptr %16, align 8, !tbaa !35
  %17 = getelementptr inbounds nuw i8, ptr %13, i64 16
  store ptr null, ptr %17, align 8, !tbaa !36
  store ptr %13, ptr %8, align 8, !tbaa !17
  %18 = getelementptr inbounds nuw i8, ptr %0, i64 104
  store ptr %13, ptr %18, align 8, !tbaa !37
  br label %19

19:                                               ; preds = %.thread, %7
  store i32 0, ptr %5, align 8, !tbaa !18
  br label %20

20:                                               ; preds = %11, %2, %4, %19
  %.016 = phi i32 [ 0, %19 ], [ 0, %4 ], [ 0, %2 ], [ 3, %11 ]
  ret i32 %.016
}